	.file	"hw1.c"
	.text
	.def	___main;	.scl	2;	.type	32;	.endef
	.globl	_main
	.def	_main;	.scl	2;	.type	32;	.endef
_main:
LFB13:
	.cfi_startproc
	pushl	%ebp
	.cfi_def_cfa_offset 8
	.cfi_offset 5, -8
	movl	%esp, %ebp
	.cfi_def_cfa_register 5
	andl	$-16, %esp
	call	___main
	call	_b
	call	_c
	call	_d
	movl	$0, %eax
	leave
	.cfi_restore 5
	.cfi_def_cfa 4, 4
	ret
	.cfi_endproc
LFE13:
	.section .rdata,"dr"
LC0:
	.ascii "B. Value: %x \12\0"
	.text
	.globl	_b
	.def	_b;	.scl	2;	.type	32;	.endef
_b:
LFB14:
	.cfi_startproc
	pushl	%ebp
	.cfi_def_cfa_offset 8
	.cfi_offset 5, -8
	movl	%esp, %ebp
	.cfi_def_cfa_register 5
	subl	$40, %esp
	movl	$-1431655766, -12(%ebp)
	movl	-12(%ebp), %eax
	sall	$4, %eax
	movl	%eax, 4(%esp)
	movl	$LC0, (%esp)
	call	_printf
	nop
	leave
	.cfi_restore 5
	.cfi_def_cfa 4, 4
	ret
	.cfi_endproc
LFE14:
	.section .rdata,"dr"
LC1:
	.ascii "C. Value: %x \12\0"
	.text
	.globl	_c
	.def	_c;	.scl	2;	.type	32;	.endef
_c:
LFB15:
	.cfi_startproc
	pushl	%ebp
	.cfi_def_cfa_offset 8
	.cfi_offset 5, -8
	movl	%esp, %ebp
	.cfi_def_cfa_register 5
	subl	$40, %esp
	movl	$-1431655766, -12(%ebp)
	movl	-12(%ebp), %eax
	shrl	$3, %eax
	movl	%eax, 4(%esp)
	movl	$LC1, (%esp)
	call	_printf
	nop
	leave
	.cfi_restore 5
	.cfi_def_cfa 4, 4
	ret
	.cfi_endproc
LFE15:
	.section .rdata,"dr"
LC2:
	.ascii "3. %x\12\0"
	.text
	.globl	_d
	.def	_d;	.scl	2;	.type	32;	.endef
_d:
LFB16:
	.cfi_startproc
	pushl	%ebp
	.cfi_def_cfa_offset 8
	.cfi_offset 5, -8
	movl	%esp, %ebp
	.cfi_def_cfa_register 5
	subl	$40, %esp
	movl	$1052672, -12(%ebp)
	movl	-12(%ebp), %eax
	addl	$2, %eax
	movl	%eax, 4(%esp)
	movl	$LC2, (%esp)
	call	_printf
	nop
	leave
	.cfi_restore 5
	.cfi_def_cfa 4, 4
	ret
	.cfi_endproc
LFE16:
	.ident	"GCC: (MinGW.org GCC Build-2) 9.2.0"
	.def	_printf;	.scl	2;	.type	32;	.endef
